target datalayout = "e-m:e-p270:32:32-p271:32:32-p272:64:64-i64:64-i128:128-f80:128-n8:16:32:64-S128"
target triple = "x86_64-pc-linux-gnu"

%struct.H5Z_cb_t = type { ptr, ptr }
%struct.H5T_vlen_alloc_info_t = type { ptr, ptr, ptr, ptr }
%struct.H5T_conv_cb_t = type { ptr, ptr }
%struct.H5CX_node_t = type { %struct.H5CX_t, ptr }
%struct.H5CX_t = type { i64, ptr, i64, ptr, i64, ptr, i64, ptr, i64, ptr, i64, ptr, i64, i32, i64, i8, ptr, i8, ptr, i8, i32, i8, [3 x double], i8, i64, i8, i32, i8, %struct.H5Z_cb_t, i8, ptr, i8, %struct.H5T_vlen_alloc_info_t, i8, %struct.H5T_conv_cb_t, i8, i32, i8, i8, i8, i32, i8, i8, i32, i8, i8, i32, i8, i32, i8, i64, i8, i8, i8, i8, i8, ptr, i8, ptr, i8, i32, i8, i32, i8, %struct.H5VL_connector_prop_t, i8, ptr, i8 }
%struct.H5VL_connector_prop_t = type { i64, ptr }
%struct.H5CX_state_t = type { i64, i64, i64, i64, ptr, %struct.H5VL_connector_prop_t }

@H5CX_head_g = internal global ptr null, align 8

; Function Attrs: nounwind uwtable
define i32 @H5CX_restore_state(ptr noundef %0) #0 {
  %2 = alloca ptr, align 8
  %3 = alloca ptr, align 8
  store ptr %0, ptr %2, align 8
  store ptr null, ptr %3, align 8
  store ptr @H5CX_head_g, ptr %3, align 8
  %4 = load ptr, ptr %2, align 8
  %5 = getelementptr inbounds %struct.H5CX_state_t, ptr %4, i32 0, i32 0
  %6 = load i64, ptr %5, align 8
  %7 = load ptr, ptr %3, align 8
  %8 = load ptr, ptr %7, align 8
  %9 = getelementptr inbounds %struct.H5CX_node_t, ptr %8, i32 0, i32 0
  %10 = getelementptr inbounds %struct.H5CX_t, ptr %9, i32 0, i32 6
  store i64 %6, ptr %10, align 8
  %11 = load ptr, ptr %3, align 8
  %12 = load ptr, ptr %11, align 8
  %13 = getelementptr inbounds %struct.H5CX_node_t, ptr %12, i32 0, i32 0
  %14 = getelementptr inbounds %struct.H5CX_t, ptr %13, i32 0, i32 7
  store ptr null, ptr %14, align 8
  %15 = load ptr, ptr %2, align 8
  %16 = getelementptr inbounds %struct.H5CX_state_t, ptr %15, i32 0, i32 1
  %17 = load i64, ptr %16, align 8
  %18 = load ptr, ptr %3, align 8
  %19 = load ptr, ptr %18, align 8
  %20 = getelementptr inbounds %struct.H5CX_node_t, ptr %19, i32 0, i32 0
  %21 = getelementptr inbounds %struct.H5CX_t, ptr %20, i32 0, i32 0
  store i64 %17, ptr %21, align 8
  %22 = load ptr, ptr %3, align 8
  %23 = load ptr, ptr %22, align 8
  %24 = getelementptr inbounds %struct.H5CX_node_t, ptr %23, i32 0, i32 0
  %25 = getelementptr inbounds %struct.H5CX_t, ptr %24, i32 0, i32 1
  store ptr null, ptr %25, align 8
  %26 = load ptr, ptr %2, align 8
  %27 = getelementptr inbounds %struct.H5CX_state_t, ptr %26, i32 0, i32 2
  %28 = load i64, ptr %27, align 8
  %29 = load ptr, ptr %3, align 8
  %30 = load ptr, ptr %29, align 8
  %31 = getelementptr inbounds %struct.H5CX_node_t, ptr %30, i32 0, i32 0
  %32 = getelementptr inbounds %struct.H5CX_t, ptr %31, i32 0, i32 4
  store i64 %28, ptr %32, align 8
  %33 = load ptr, ptr %3, align 8
  %34 = load ptr, ptr %33, align 8
  %35 = getelementptr inbounds %struct.H5CX_node_t, ptr %34, i32 0, i32 0
  %36 = getelementptr inbounds %struct.H5CX_t, ptr %35, i32 0, i32 5
  store ptr null, ptr %36, align 8
  %37 = load ptr, ptr %2, align 8
  %38 = getelementptr inbounds %struct.H5CX_state_t, ptr %37, i32 0, i32 3
  %39 = load i64, ptr %38, align 8
  %40 = load ptr, ptr %3, align 8
  %41 = load ptr, ptr %40, align 8
  %42 = getelementptr inbounds %struct.H5CX_node_t, ptr %41, i32 0, i32 0
  %43 = getelementptr inbounds %struct.H5CX_t, ptr %42, i32 0, i32 2
  store i64 %39, ptr %43, align 8
  %44 = load ptr, ptr %3, align 8
  %45 = load ptr, ptr %44, align 8
  %46 = getelementptr inbounds %struct.H5CX_node_t, ptr %45, i32 0, i32 0
  %47 = getelementptr inbounds %struct.H5CX_t, ptr %46, i32 0, i32 3
  store ptr null, ptr %47, align 8
  %48 = load ptr, ptr %2, align 8
  %49 = getelementptr inbounds %struct.H5CX_state_t, ptr %48, i32 0, i32 4
  %50 = load ptr, ptr %49, align 8
  %51 = load ptr, ptr %3, align 8
  %52 = load ptr, ptr %51, align 8
  %53 = getelementptr inbounds %struct.H5CX_node_t, ptr %52, i32 0, i32 0
  %54 = getelementptr inbounds %struct.H5CX_t, ptr %53, i32 0, i32 66
  store ptr %50, ptr %54, align 8
  %55 = load ptr, ptr %3, align 8
  %56 = load ptr, ptr %55, align 8
  %57 = getelementptr inbounds %struct.H5CX_node_t, ptr %56, i32 0, i32 0
  %58 = getelementptr inbounds %struct.H5CX_t, ptr %57, i32 0, i32 66
  %59 = load ptr, ptr %58, align 8
  %60 = icmp ne ptr null, %59
  br i1 %60, label %61, label %66

61:                                               ; preds = %1
  %62 = load ptr, ptr %3, align 8
  %63 = load ptr, ptr %62, align 8
  %64 = getelementptr inbounds %struct.H5CX_node_t, ptr %63, i32 0, i32 0
  %65 = getelementptr inbounds %struct.H5CX_t, ptr %64, i32 0, i32 67
  store i8 1, ptr %65, align 8
  br label %66

66:                                               ; preds = %61, %1
  %67 = load ptr, ptr %2, align 8
  %68 = getelementptr inbounds %struct.H5CX_state_t, ptr %67, i32 0, i32 5
  %69 = getelementptr inbounds %struct.H5VL_connector_prop_t, ptr %68, i32 0, i32 0
  %70 = load i64, ptr %69, align 8
  %71 = icmp ne i64 %70, 0
  br i1 %71, label %72, label %83

72:                                               ; preds = %66
  %73 = load ptr, ptr %3, align 8
  %74 = load ptr, ptr %73, align 8
  %75 = getelementptr inbounds %struct.H5CX_node_t, ptr %74, i32 0, i32 0
  %76 = getelementptr inbounds %struct.H5CX_t, ptr %75, i32 0, i32 64
  %77 = load ptr, ptr %2, align 8
  %78 = getelementptr inbounds %struct.H5CX_state_t, ptr %77, i32 0, i32 5
  call void @llvm.memcpy.p0.p0.i64(ptr align 8 %76, ptr align 8 %78, i64 16, i1 false)
  %79 = load ptr, ptr %3, align 8
  %80 = load ptr, ptr %79, align 8
  %81 = getelementptr inbounds %struct.H5CX_node_t, ptr %80, i32 0, i32 0
  %82 = getelementptr inbounds %struct.H5CX_t, ptr %81, i32 0, i32 65
  store i8 1, ptr %82, align 8
  br label %83

83:                                               ; preds = %72, %66
  ret i32 0
}