; Function Attrs: mustprogress nofree norecurse nosync nounwind willreturn memory(readwrite, inaccessiblemem: none) uwtable
define noundef i32 @H5CX_restore_state(ptr nocapture noundef readonly %0) local_unnamed_addr #9 {
  %2 = load i64, ptr %0, align 8
  %3 = load ptr, ptr @H5CX_head_g, align 8
  %4 = getelementptr inbounds i8, ptr %3, i64 48
  store i64 %2, ptr %4, align 8
  %5 = getelementptr inbounds i8, ptr %3, i64 56
  store ptr null, ptr %5, align 8
  %6 = getelementptr inbounds i8, ptr %0, i64 8
  %7 = load i64, ptr %6, align 8
  store i64 %7, ptr %3, align 8
  %8 = getelementptr inbounds i8, ptr %3, i64 8
  store ptr null, ptr %8, align 8
  %9 = getelementptr inbounds i8, ptr %0, i64 16
  %10 = load i64, ptr %9, align 8
  %11 = getelementptr inbounds i8, ptr %3, i64 32
  store i64 %10, ptr %11, align 8
  %12 = getelementptr inbounds i8, ptr %3, i64 40
  store ptr null, ptr %12, align 8
  %13 = getelementptr inbounds i8, ptr %0, i64 24
  %14 = load i64, ptr %13, align 8
  %15 = getelementptr inbounds i8, ptr %3, i64 16
  store i64 %14, ptr %15, align 8
  %16 = getelementptr inbounds i8, ptr %3, i64 24
  store ptr null, ptr %16, align 8
  %17 = getelementptr inbounds i8, ptr %0, i64 32
  %18 = load ptr, ptr %17, align 8
  %19 = getelementptr inbounds i8, ptr %3, i64 456
  store ptr %18, ptr %19, align 8
  %.not = icmp eq ptr %18, null
  br i1 %.not, label %22, label %20

20:                                               ; preds = %1
  %21 = getelementptr inbounds i8, ptr %3, i64 464
  store i8 1, ptr %21, align 8
  br label %22

22:                                               ; preds = %20, %1
  %23 = getelementptr inbounds i8, ptr %0, i64 40
  %24 = load i64, ptr %23, align 8
  %.not20 = icmp eq i64 %24, 0
  br i1 %.not20, label %28, label %25

25:                                               ; preds = %22
  %26 = getelementptr inbounds i8, ptr %3, i64 432
  tail call void @llvm.memcpy.p0.p0.i64(ptr noundef nonnull align 8 dereferenceable(16) %26, ptr noundef nonnull align 8 dereferenceable(16) %23, i64 16, i1 false)
  %27 = getelementptr inbounds i8, ptr %3, i64 448
  store i8 1, ptr %27, align 8
  br label %28

28:                                               ; preds = %25, %22
  ret i32 0
}